Certificate:
    Data:
        Version: 1 (0x0)
        Serial Number: 1 (0x1)
        Signature Algorithm: sha256WithRSAEncryption
        Issuer: C=MU, ST=Province of Munin, L=Munin Town, O=Munin Inc., OU=CA, CN=127.0.0.1/emailAddress=munin@example.org
        Validity
            Not Before: Nov  1 03:49:21 2018 GMT
            Not After : Oct 29 03:49:21 2028 GMT
        Subject: C=MU, ST=Province of Munin, O=Munin Inc., OU=Node, CN=127.0.0.1
        Subject Public Key Info:
            Public Key Algorithm: rsaEncryption
                RSA Public-Key: (2048 bit)
                Modulus:
                    00:9e:bf:2a:53:9b:3f:c8:26:24:80:02:15:9f:5d:
                    4b:96:2b:4d:81:16:48:fe:8b:a3:80:2e:c0:6b:07:
                    9d:cf:f5:1c:83:59:92:35:c2:df:bb:e8:f8:b3:1a:
                    a8:0a:ed:4d:05:52:03:47:af:e4:e7:12:c2:23:94:
                    e6:14:8e:87:cf:b3:3e:26:54:5a:b3:3d:5a:d8:45:
                    07:6f:d0:94:7a:e9:d7:ac:d5:e1:9a:0e:1b:4c:12:
                    a0:c1:75:b6:13:3c:75:5b:08:51:3d:e4:3c:dd:a8:
                    02:16:a4:ee:2a:a6:fc:da:e6:31:ba:54:ac:26:96:
                    b9:eb:f0:77:a9:99:1a:d8:a5:9e:ea:69:15:95:f9:
                    e9:9c:0d:ff:d6:7f:7c:32:d4:31:dd:21:19:1f:45:
                    e4:36:8c:8e:14:6c:9e:92:56:b2:27:f8:bd:aa:1a:
                    90:c5:c0:40:8f:27:30:19:ce:6d:51:1b:62:e4:3d:
                    19:8b:73:2a:1e:b5:fe:14:66:b7:12:8c:bc:41:a1:
                    a6:00:d3:2a:9c:fc:1b:b9:70:94:b4:53:3b:0c:d1:
                    49:e4:3e:b7:2f:8f:0e:ed:bd:7b:a2:1c:d8:f7:6b:
                    26:5b:ff:4a:a3:83:02:3b:6e:9d:22:12:d2:8e:0d:
                    37:f4:1f:5b:44:d5:df:35:f7:1b:39:02:73:4f:ea:
                    11:75
                Exponent: 65537 (0x10001)
    Signature Algorithm: sha256WithRSAEncryption
         7c:18:5e:6e:a0:c3:7b:d5:bd:b4:16:40:74:77:0d:ce:a4:7a:
         1a:d3:58:1e:15:9d:25:53:6c:a6:58:a4:71:fb:53:ea:52:d4:
         56:a3:f3:2d:b7:f8:2f:af:22:bc:1f:b1:1b:cb:35:d8:d4:c6:
         ac:89:f4:d2:f5:17:80:86:e4:5c:0e:4a:ec:a4:e8:fe:93:21:
         77:2e:cd:bd:8c:1e:6e:eb:65:82:35:42:53:3e:26:e4:f8:7c:
         14:08:d0:a3:3f:c1:1c:69:a2:2e:84:55:32:f9:96:7f:b9:b9:
         cb:e8:7a:77:58:55:f4:26:e5:63:10:58:88:35:34:f9:ca:8d:
         1d:24:f9:fa:36:c8:ce:f0:99:8b:6f:b8:1d:11:01:97:95:8f:
         83:6a:ac:25:3a:01:e8:16:29:82:11:15:7b:c9:56:6e:21:b2:
         58:fe:57:c8:3a:3b:d2:94:49:c5:a7:f1:c2:69:5a:fb:03:3b:
         f9:c8:8a:23:2d:58:23:4e:11:d1:8f:46:80:ec:e8:a4:d8:0c:
         39:bc:e4:d6:ea:5f:4c:dd:d3:4d:3b:ed:02:c3:45:2e:f4:0f:
         07:4c:ff:21:46:d2:dc:fe:50:7b:65:2f:94:34:7c:80:e3:f3:
         ff:3e:59:46:4d:8b:1f:70:da:25:17:73:93:ca:d3:87:1d:fa:
         97:69:77:31
-----BEGIN CERTIFICATE-----
MIIDbDCCAlQCAQEwDQYJKoZIhvcNAQELBQAwgZYxCzAJBgNVBAYTAk1VMRowGAYD
VQQIDBFQcm92aW5jZSBvZiBNdW5pbjETMBEGA1UEBwwKTXVuaW4gVG93bjETMBEG
A1UECgwKTXVuaW4gSW5jLjELMAkGA1UECwwCQ0ExEjAQBgNVBAMMCTEyNy4wLjAu
MTEgMB4GCSqGSIb3DQEJARYRbXVuaW5AZXhhbXBsZS5vcmcwHhcNMTgxMTAxMDM0
OTIxWhcNMjgxMDI5MDM0OTIxWjBhMQswCQYDVQQGEwJNVTEaMBgGA1UECAwRUHJv
dmluY2Ugb2YgTXVuaW4xEzARBgNVBAoMCk11bmluIEluYy4xDTALBgNVBAsMBE5v
ZGUxEjAQBgNVBAMMCTEyNy4wLjAuMTCCASIwDQYJKoZIhvcNAQEBBQADggEPADCC
AQoCggEBAJ6/KlObP8gmJIACFZ9dS5YrTYEWSP6Lo4AuwGsHnc/1HINZkjXC37vo
+LMaqArtTQVSA0ev5OcSwiOU5hSOh8+zPiZUWrM9WthFB2/QlHrp16zV4ZoOG0wS
oMF1thM8dVsIUT3kPN2oAhak7iqm/NrmMbpUrCaWuevwd6mZGtilnuppFZX56ZwN
/9Z/fDLUMd0hGR9F5DaMjhRsnpJWsif4vaoakMXAQI8nMBnObVEbYuQ9GYtzKh61
/hRmtxKMvEGhpgDTKpz8G7lwlLRTOwzRSeQ+ty+PDu29e6Ic2PdrJlv/SqODAjtu
nSIS0o4NN/QfW0TV3zX3GzkCc0/qEXUCAwEAATANBgkqhkiG9w0BAQsFAAOCAQEA
fBhebqDDe9W9tBZAdHcNzqR6GtNYHhWdJVNsplikcftT6lLUVqPzLbf4L68ivB+x
G8s12NTGrIn00vUXgIbkXA5K7KTo/pMhdy7NvYwebutlgjVCUz4m5Ph8FAjQoz/B
HGmiLoRVMvmWf7m5y+h6d1hV9CblYxBYiDU0+cqNHST5+jbIzvCZi2+4HREBl5WP
g2qsJToB6BYpghEVe8lWbiGyWP5XyDo70pRJxafxwmla+wM7+ciKIy1YI04R0Y9G
gOzopNgMObzk1upfTN3TTTvtAsNFLvQPB0z/IUbS3P5Qe2UvlDR8gOPz/z5ZRk2L
H3DaJRdzk8rThx36l2l3MQ==
-----END CERTIFICATE-----
