Certificate:
    Data:
        Version: 1 (0x0)
        Serial Number: 2 (0x2)
        Signature Algorithm: md5WithRSAEncryption
        Issuer: C=MU, ST=Province of Munin, L=Munin Town, O=Munin Inc., OU=., CN=127.0.0.1/emailAddress=munin@example.org
        Validity
            Not Before: Apr  7 09:17:20 2009 GMT
            Not After : Apr  5 09:17:20 2019 GMT
        Subject: C=MU, ST=Province of Munin, O=Munin Inc., OU=., CN=127.0.0.1
        Subject Public Key Info:
            Public Key Algorithm: rsaEncryption
            RSA Public Key: (1024 bit)
                Modulus (1024 bit):
                    00:ce:82:56:87:ad:d4:21:27:ea:3c:f8:f4:58:ca:
                    e6:a1:54:16:9a:80:bc:4c:d3:6b:a7:f1:86:0d:a1:
                    52:81:2a:5d:f1:c6:9d:cc:bf:72:c3:c7:26:58:ea:
                    ca:62:5b:cf:03:4b:41:56:68:3d:51:e4:b0:b2:67:
                    f2:44:db:dc:1c:cc:40:60:ce:dc:ad:41:fe:1e:0b:
                    a5:47:c0:35:97:ad:45:e8:b8:6f:0b:b7:16:d4:cf:
                    4d:8e:b5:df:1c:50:27:63:58:3a:7c:9a:ee:fb:74:
                    b8:cf:fb:84:f6:c3:c0:f8:88:cd:7a:26:3a:72:0c:
                    15:f6:d7:99:98:c6:2d:52:97
                Exponent: 65537 (0x10001)
    Signature Algorithm: md5WithRSAEncryption
        c5:ee:69:b5:7c:c3:87:23:32:88:b4:b5:08:3b:39:80:99:9d:
        03:f1:d1:ac:76:45:b5:46:8a:0f:9f:10:67:b3:c4:c3:3a:aa:
        34:37:32:96:4f:29:2e:ee:05:e3:18:27:7f:61:6d:6c:09:5f:
        b5:b6:b1:80:c0:d5:80:7c:8d:32:33:16:8e:ff:25:59:58:48:
        ad:a7:b9:ab:53:06:91:f7:88:0e:10:a0:ef:af:d1:47:b5:38:
        03:c4:0e:9a:23:79:94:6e:c0:8d:c8:91:9f:f4:63:44:dd:ca:
        06:02:b0:5b:68:65:c3:c9:1a:0d:b1:a6:dd:d1:e0:30:af:52:
        fb:84
-----BEGIN CERTIFICATE-----
MIICYzCCAcwCAQIwDQYJKoZIhvcNAQEEBQAwgZUxCzAJBgNVBAYTAk1VMRowGAYD
VQQIExFQcm92aW5jZSBvZiBNdW5pbjETMBEGA1UEBxMKTXVuaW4gVG93bjETMBEG
A1UEChMKTXVuaW4gSW5jLjEKMAgGA1UECxMBLjESMBAGA1UEAxMJMTI3LjAuMC4x
MSAwHgYJKoZIhvcNAQkBFhFtdW5pbkBleGFtcGxlLm9yZzAeFw0wOTA0MDcwOTE3
MjBaFw0xOTA0MDUwOTE3MjBaMF4xCzAJBgNVBAYTAk1VMRowGAYDVQQIExFQcm92
aW5jZSBvZiBNdW5pbjETMBEGA1UEChMKTXVuaW4gSW5jLjEKMAgGA1UECxMBLjES
MBAGA1UEAxMJMTI3LjAuMC4xMIGfMA0GCSqGSIb3DQEBAQUAA4GNADCBiQKBgQDO
glaHrdQhJ+o8+PRYyuahVBaagLxM02un8YYNoVKBKl3xxp3Mv3LDxyZY6spiW88D
S0FWaD1R5LCyZ/JE29wczEBgztytQf4eC6VHwDWXrUXouG8LtxbUz02Otd8cUCdj
WDp8mu77dLjP+4T2w8D4iM16JjpyDBX215mYxi1SlwIDAQABMA0GCSqGSIb3DQEB
BAUAA4GBAMXuabV8w4cjMoi0tQg7OYCZnQPx0ax2RbVGig+fEGezxMM6qjQ3MpZP
KS7uBeMYJ39hbWwJX7W2sYDA1YB8jTIzFo7/JVlYSK2nuatTBpH3iA4QoO+v0Ue1
OAPEDpojeZRuwI3IkZ/0Y0TdygYCsFtoZcPJGg2xpt3R4DCvUvuE
-----END CERTIFICATE-----
