Certificate:
    Data:
        Version: 1 (0x0)
        Serial Number: 2 (0x2)
        Signature Algorithm: sha256WithRSAEncryption
        Issuer: C=MU, ST=Province of Munin, L=Munin Town, O=Munin Inc., OU=CA, CN=127.0.0.1/emailAddress=munin@example.org
        Validity
            Not Before: Nov  1 03:49:21 2018 GMT
            Not After : Oct 29 03:49:21 2028 GMT
        Subject: C=MU, ST=Province of Munin, O=Munin Inc., OU=Master, CN=127.0.0.1
        Subject Public Key Info:
            Public Key Algorithm: rsaEncryption
                RSA Public-Key: (2048 bit)
                Modulus:
                    00:cb:62:78:95:15:55:0f:16:a5:6a:3a:99:83:4d:
                    b0:38:2f:4c:58:22:76:cf:48:a3:36:ef:47:2c:86:
                    8b:bb:cc:33:41:40:cf:14:90:b3:05:d0:38:02:10:
                    95:75:62:d6:75:ec:9c:fe:1e:cf:fe:8a:42:ee:a7:
                    fa:80:63:3e:d5:fc:1d:e9:a8:b8:d3:96:9f:67:4c:
                    be:56:7e:3f:1b:ca:90:58:14:80:ea:ec:eb:5d:e9:
                    5f:21:4b:a5:e7:ef:fb:43:b4:70:7f:d0:02:ac:31:
                    91:ef:8e:26:96:6c:aa:fa:ba:95:6a:a7:25:8b:8f:
                    6c:fc:8a:eb:bb:b0:c4:0d:cc:65:96:78:1e:ce:10:
                    ab:09:50:ac:7a:96:9b:cf:a6:89:46:6c:be:94:4e:
                    6c:3c:42:57:02:63:94:16:30:f4:99:dc:9f:f3:e6:
                    f6:30:50:29:04:bd:e9:79:12:46:4b:f1:54:f3:c7:
                    c7:6a:e9:fd:bd:12:40:ff:01:e8:f8:9c:5a:11:50:
                    3d:06:ce:1c:12:fb:a2:dd:c6:b4:ff:31:29:7d:02:
                    ce:10:0b:9b:7b:33:02:0d:1c:a0:30:24:06:7b:e7:
                    4f:ae:04:39:bc:5e:10:20:8f:18:d3:2d:02:3c:e9:
                    45:87:a5:ac:28:5e:80:12:be:43:37:fe:42:5d:29:
                    7b:b5
                Exponent: 65537 (0x10001)
    Signature Algorithm: sha256WithRSAEncryption
         41:d8:09:20:d2:98:40:8c:f3:40:a5:c9:fd:3b:24:f9:6b:ed:
         88:1c:a8:04:36:9d:ac:ee:34:70:a7:e6:bf:8a:23:66:f2:ce:
         b5:8d:a2:59:72:b5:8b:de:bd:63:ce:c2:85:24:51:28:b9:1c:
         6b:74:b7:35:94:84:c8:17:b6:2a:95:02:e2:63:a5:9a:fb:13:
         c1:a8:e2:e2:73:cc:28:31:fc:9c:ec:b1:7e:a5:22:55:22:56:
         16:c3:71:1b:13:bc:e2:4e:4b:d9:ef:2f:13:e2:12:7b:d0:0a:
         70:05:57:aa:f1:5b:d4:22:9d:38:20:12:93:30:6d:e6:65:24:
         2d:7f:34:5f:64:6e:ed:a0:72:8d:a0:ec:a5:9f:8f:8d:b5:8d:
         57:01:6a:e9:8e:48:71:2d:4e:5a:cc:6e:fb:2f:5c:49:d3:b7:
         1f:ea:a3:65:cc:a5:ce:d6:5e:18:70:74:a4:7a:e7:dd:b7:38:
         51:7b:20:2f:8f:29:c5:86:af:e4:26:da:da:9d:16:5e:a2:45:
         0d:10:31:25:bd:64:d8:28:23:c9:dc:44:3a:61:7a:98:e0:b9:
         1c:a9:06:6c:9c:19:cb:6c:00:38:00:e6:3a:00:d0:4a:60:ab:
         70:5e:5f:ae:ed:96:84:83:e1:b0:11:f5:c2:95:e4:f3:53:71:
         47:23:75:e6
-----BEGIN CERTIFICATE-----
MIIDbjCCAlYCAQIwDQYJKoZIhvcNAQELBQAwgZYxCzAJBgNVBAYTAk1VMRowGAYD
VQQIDBFQcm92aW5jZSBvZiBNdW5pbjETMBEGA1UEBwwKTXVuaW4gVG93bjETMBEG
A1UECgwKTXVuaW4gSW5jLjELMAkGA1UECwwCQ0ExEjAQBgNVBAMMCTEyNy4wLjAu
MTEgMB4GCSqGSIb3DQEJARYRbXVuaW5AZXhhbXBsZS5vcmcwHhcNMTgxMTAxMDM0
OTIxWhcNMjgxMDI5MDM0OTIxWjBjMQswCQYDVQQGEwJNVTEaMBgGA1UECAwRUHJv
dmluY2Ugb2YgTXVuaW4xEzARBgNVBAoMCk11bmluIEluYy4xDzANBgNVBAsMBk1h
c3RlcjESMBAGA1UEAwwJMTI3LjAuMC4xMIIBIjANBgkqhkiG9w0BAQEFAAOCAQ8A
MIIBCgKCAQEAy2J4lRVVDxalajqZg02wOC9MWCJ2z0ijNu9HLIaLu8wzQUDPFJCz
BdA4AhCVdWLWdeyc/h7P/opC7qf6gGM+1fwd6ai405afZ0y+Vn4/G8qQWBSA6uzr
XelfIUul5+/7Q7Rwf9ACrDGR744mlmyq+rqVaqcli49s/Irru7DEDcxllngezhCr
CVCsepabz6aJRmy+lE5sPEJXAmOUFjD0mdyf8+b2MFApBL3peRJGS/FU88fHaun9
vRJA/wHo+JxaEVA9Bs4cEvui3ca0/zEpfQLOEAubezMCDRygMCQGe+dPrgQ5vF4Q
II8Y0y0CPOlFh6WsKF6AEr5DN/5CXSl7tQIDAQABMA0GCSqGSIb3DQEBCwUAA4IB
AQBB2Akg0phAjPNApcn9OyT5a+2IHKgENp2s7jRwp+a/iiNm8s61jaJZcrWL3r1j
zsKFJFEouRxrdLc1lITIF7YqlQLiY6Wa+xPBqOLic8woMfyc7LF+pSJVIlYWw3Eb
E7ziTkvZ7y8T4hJ70ApwBVeq8VvUIp04IBKTMG3mZSQtfzRfZG7toHKNoOyln4+N
tY1XAWrpjkhxLU5azG77L1xJ07cf6qNlzKXO1l4YcHSkeufdtzhReyAvjynFhq/k
JtranRZeokUNEDElvWTYKCPJ3EQ6YXqY4LkcqQZsnBnLbAA4AOY6ANBKYKtwXl+u
7ZaEg+GwEfXCleTzU3FHI3Xm
-----END CERTIFICATE-----
