Certificate:
    Data:
        Version: 1 (0x0)
        Serial Number: 1 (0x1)
        Signature Algorithm: md5WithRSAEncryption
        Issuer: C=MU, ST=Province of Munin, L=Munin Town, O=Munin Inc., OU=., CN=127.0.0.1/emailAddress=munin@example.org
        Validity
            Not Before: Apr  7 09:17:20 2009 GMT
            Not After : Apr  5 09:17:20 2019 GMT
        Subject: C=MU, ST=Province of Munin, O=Munin Inc., OU=., CN=127.0.0.1
        Subject Public Key Info:
            Public Key Algorithm: rsaEncryption
            RSA Public Key: (1024 bit)
                Modulus (1024 bit):
                    00:d6:43:f2:48:72:ef:58:d6:66:89:c9:8a:d2:ce:
                    24:b6:50:85:a5:83:55:97:cb:fd:d5:f7:38:16:73:
                    07:8a:eb:7b:3b:af:35:ef:8c:2e:ed:60:f3:78:81:
                    49:94:75:04:1f:71:5f:09:d1:cf:ec:14:6a:5b:3e:
                    e8:26:6a:e9:e5:9f:dd:fa:96:de:9d:53:7c:18:fb:
                    11:64:aa:34:3d:e1:86:38:b7:69:54:4e:b6:67:b3:
                    b6:c9:3e:5e:7e:9c:4d:49:21:73:d8:71:3b:c9:1c:
                    61:fb:71:c1:ff:ad:7a:9c:07:cb:dd:e3:34:29:a3:
                    34:4b:c1:10:2a:67:31:a2:1d
                Exponent: 65537 (0x10001)
    Signature Algorithm: md5WithRSAEncryption
        04:0e:00:80:33:73:2f:29:37:73:89:1f:fb:00:df:af:1b:94:
        a7:e4:da:4d:5f:29:a5:d6:dd:77:71:5a:a2:dc:c0:53:7a:58:
        25:fe:4b:64:5d:8f:71:e3:aa:82:3d:14:8c:89:66:cd:9b:ee:
        b1:bd:fe:d8:65:f7:27:15:a7:56:e1:c9:cc:64:90:1c:e4:62:
        2d:ee:c0:53:cb:dd:8a:c6:c0:cb:60:66:1e:ae:7f:17:8f:0e:
        f5:8e:ab:24:50:8a:a3:36:01:76:23:d1:1e:45:01:1c:6c:6f:
        f9:a1:b5:89:55:ba:06:3c:2e:ff:09:0f:e5:4b:55:b8:a8:4a:
        4e:2f
-----BEGIN CERTIFICATE-----
MIICYzCCAcwCAQEwDQYJKoZIhvcNAQEEBQAwgZUxCzAJBgNVBAYTAk1VMRowGAYD
VQQIExFQcm92aW5jZSBvZiBNdW5pbjETMBEGA1UEBxMKTXVuaW4gVG93bjETMBEG
A1UEChMKTXVuaW4gSW5jLjEKMAgGA1UECxMBLjESMBAGA1UEAxMJMTI3LjAuMC4x
MSAwHgYJKoZIhvcNAQkBFhFtdW5pbkBleGFtcGxlLm9yZzAeFw0wOTA0MDcwOTE3
MjBaFw0xOTA0MDUwOTE3MjBaMF4xCzAJBgNVBAYTAk1VMRowGAYDVQQIExFQcm92
aW5jZSBvZiBNdW5pbjETMBEGA1UEChMKTXVuaW4gSW5jLjEKMAgGA1UECxMBLjES
MBAGA1UEAxMJMTI3LjAuMC4xMIGfMA0GCSqGSIb3DQEBAQUAA4GNADCBiQKBgQDW
Q/JIcu9Y1maJyYrSziS2UIWlg1WXy/3V9zgWcweK63s7rzXvjC7tYPN4gUmUdQQf
cV8J0c/sFGpbPugmaunln936lt6dU3wY+xFkqjQ94YY4t2lUTrZns7bJPl5+nE1J
IXPYcTvJHGH7ccH/rXqcB8vd4zQpozRLwRAqZzGiHQIDAQABMA0GCSqGSIb3DQEB
BAUAA4GBAAQOAIAzcy8pN3OJH/sA368blKfk2k1fKaXW3XdxWqLcwFN6WCX+S2Rd
j3HjqoI9FIyJZs2b7rG9/thl9ycVp1bhycxkkBzkYi3uwFPL3YrGwMtgZh6ufxeP
DvWOqyRQiqM2AXYj0R5FARxsb/mhtYlVugY8Lv8JD+VLVbioSk4v
-----END CERTIFICATE-----
